(lp1
(S'rb071919_parsons_johnson.mp4'
p2
I157697
I193
I411
tp3
a(g2
I157698
I195
I403
tp4
a(S'rb071919_parsons_johnson.mp4'
I157700
I204
I390
tp5
a(S'rb071919_parsons_johnson.mp4'
p6
I238077
I177
I470
tp7
a(g6
I152727
I-1
I-1
tp8
a(g6
I129804
I303
I600
tp9
a(g6
I119779
I333
I818
tp10
a(S'rb071919_parsons_johnson.mp4'
p11
I221479
I-1
I-1
tp12
a.